ARM GAS  C:\Users\lab512\AppData\Local\Temp\ccieL2OU.s 			page 1


   1              		.syntax unified
   2              		.cpu cortex-m3
   3              		.fpu softvfp
   4              		.eabi_attribute 20, 1
   5              		.eabi_attribute 21, 1
   6              		.eabi_attribute 23, 3
   7              		.eabi_attribute 24, 1
   8              		.eabi_attribute 25, 1
   9              		.eabi_attribute 26, 1
  10              		.eabi_attribute 30, 1
  11              		.eabi_attribute 34, 1
  12              		.eabi_attribute 18, 4
  13              		.thumb
  14              		.syntax unified
  15              		.file	"servo.c"
  16              		.text
  17              	.Ltext0:
  18              		.cfi_sections	.debug_frame
  19              		.section	.text.SetServoLimit,"ax",%progbits
  20              		.align	2
  21              		.global	SetServoLimit
  22              		.thumb
  23              		.thumb_func
  24              		.type	SetServoLimit, %function
  25              	SetServoLimit:
  26              	.LFB63:
  27              		.file 1 "servo.c"
   1:servo.c       **** /* ========================================
   2:servo.c       ****  *
   3:servo.c       ****  * Copyright YOUR COMPANY, THE YEAR
   4:servo.c       ****  * All Rights Reserved
   5:servo.c       ****  * UNPUBLISHED, LICENSED SOFTWARE.
   6:servo.c       ****  *
   7:servo.c       ****  * CONFIDENTIAL AND PROPRIETARY INFORMATION
   8:servo.c       ****  * WHICH IS THE PROPERTY OF your company.
   9:servo.c       ****  *
  10:servo.c       ****  * ========================================
  11:servo.c       **** */
  12:servo.c       **** 
  13:servo.c       **** /* [] END OF FILE */
  14:servo.c       **** #include "servo.h"
  15:servo.c       **** #include "project.h"
  16:servo.c       **** 
  17:servo.c       **** void SetServoLimit(unsigned char id, unsigned short int cw_limit, unsigned short int ccw_limit)
  18:servo.c       **** {
  28              		.loc 1 18 0
  29              		.cfi_startproc
  30              		@ args = 0, pretend = 0, frame = 0
  31              		@ frame_needed = 0, uses_anonymous_args = 0
  32              	.LVL0:
  33 0000 2DE9F041 		push	{r4, r5, r6, r7, r8, lr}
  34              		.cfi_def_cfa_offset 24
  35              		.cfi_offset 4, -24
  36              		.cfi_offset 5, -20
  37              		.cfi_offset 6, -16
  38              		.cfi_offset 7, -12
  39              		.cfi_offset 8, -8
ARM GAS  C:\Users\lab512\AppData\Local\Temp\ccieL2OU.s 			page 2


  40              		.cfi_offset 14, -4
  41 0004 0446     		mov	r4, r0
  42              	.LVL1:
  19:servo.c       ****     unsigned short int temp_ccw = 0; // ‰∏¥Êó∂ÈÄüÂ∫¶ÔºåÁî®‰∫éËøõË°åÊñπÂêëÂà§Âà´ // (temp velocity t
  20:servo.c       ****     unsigned short int temp_cw = 0;
  21:servo.c       ****     unsigned char temp_ccw_h = 0; // ÂæÖÂèëÈÄÅÊï∞ÊçÆh‰Ωç // (h bits to be sended)
  22:servo.c       ****     unsigned char temp_ccw_l = 0; // ÂæÖÂèëÈÄÅÊï∞ÊçÆl‰Ωç // (l bits to be sended)
  23:servo.c       ****     unsigned char temp_cw_h = 0;
  24:servo.c       ****     unsigned char temp_cw_l = 0;
  25:servo.c       ****     unsigned char temp_sum = 0; // Ê†°È™åÂíåÂØÑÂ≠òÂèòÈáè // (temp variable to save checksum)
  26:servo.c       ****     if (ccw_limit > 1023)
  43              		.loc 1 26 0
  44 0006 B2F5806F 		cmp	r2, #1024
  45 000a 01D3     		bcc	.L2
  27:servo.c       ****     {
  28:servo.c       ****         temp_ccw = 1023;
  46              		.loc 1 28 0
  47 000c 40F2FF32 		movw	r2, #1023
  48              	.LVL2:
  49              	.L2:
  29:servo.c       ****         // ÈôêÂà∂ÈÄüÂ∫¶ÂÄºÂú®ÂèØÁî®ËåÉÂõ¥ÂÜÖ // (limit the velocity to 0-1023)
  30:servo.c       ****     }
  31:servo.c       ****     else
  32:servo.c       ****     {
  33:servo.c       ****         temp_ccw = ccw_limit;
  34:servo.c       ****     }
  35:servo.c       ****     if (cw_limit > 1023)
  50              		.loc 1 35 0
  51 0010 B1F5806F 		cmp	r1, #1024
  52 0014 01D3     		bcc	.L3
  36:servo.c       ****     {
  37:servo.c       ****         temp_cw = 1023;
  53              		.loc 1 37 0
  54 0016 40F2FF31 		movw	r1, #1023
  55              	.LVL3:
  56              	.L3:
  38:servo.c       ****     }
  39:servo.c       ****     else
  40:servo.c       ****     {
  41:servo.c       ****         temp_cw = cw_limit;
  42:servo.c       ****     }
  43:servo.c       ****     temp_ccw_h = (unsigned char)(temp_ccw >> 8);
  57              		.loc 1 43 0
  58 001a 160A     		lsrs	r6, r2, #8
  59              	.LVL4:
  44:servo.c       ****     temp_ccw_l = (unsigned char)temp_ccw; // Â∞Ü16bitÊï∞ÊçÆÊãÜ‰∏∫2‰∏™8bitÊï∞ÊçÆ // (split 16 bits t
  60              		.loc 1 44 0
  61 001c D5B2     		uxtb	r5, r2
  62              	.LVL5:
  45:servo.c       ****     temp_cw_h = (unsigned char)(temp_cw >> 8);
  63              		.loc 1 45 0
  64 001e 4FEA1128 		lsr	r8, r1, #8
  65              	.LVL6:
  46:servo.c       ****     temp_cw_l = (unsigned char)temp_cw; // Â∞Ü16bitÊï∞ÊçÆÊãÜ‰∏∫2‰∏™8bitÊï∞ÊçÆ // (split 16 bits to 
  66              		.loc 1 46 0
  67 0022 CFB2     		uxtb	r7, r1
  68              	.LVL7:
ARM GAS  C:\Users\lab512\AppData\Local\Temp\ccieL2OU.s 			page 3


  47:servo.c       ****     // PORTA &= ~_BV(PA1);
  48:servo.c       ****     // PORTA |= _BV(PA0); // ‰ΩøÊÄªÁ∫øÂ§Ñ‰∫é‰∏ªÊú∫ÂèëÈÄÅÁä∂ÊÄÅ // (Set the bus to host transmit sta
  49:servo.c       ****     // UCSR0A |= (1<<TXC0); // Ê∏ÖÈô§UART_10ÂÜôÂÆåÊàêÊ†áÂøó // (Clear written flag of UART_10)
  50:servo.c       ****     UART_PutChar(0xFF);       // ÂèëÈÄÅÂêØÂä®Á¨¶Âè∑0xFF // (Send the start byte 0xff)
  69              		.loc 1 50 0
  70 0024 FF20     		movs	r0, #255
  71              	.LVL8:
  72 0026 FFF7FEFF 		bl	UART_PutChar
  73              	.LVL9:
  51:servo.c       ****     UART_PutChar(0xFF);       // ÂèëÈÄÅÂêØÂä®Á¨¶Âè∑0xFF // (Send the start byte 0xff)
  74              		.loc 1 51 0
  75 002a FF20     		movs	r0, #255
  76 002c FFF7FEFF 		bl	UART_PutChar
  77              	.LVL10:
  52:servo.c       ****     UART_PutChar(id);         // ÂèëÈÄÅid // (Send the servo‚Äôs ID)
  78              		.loc 1 52 0
  79 0030 2046     		mov	r0, r4
  80 0032 FFF7FEFF 		bl	UART_PutChar
  81              	.LVL11:
  53:servo.c       ****     UART_PutChar(7);          // ÂèëÈÄÅÊï∞ÊçÆÈïøÂ∫¶‰∏∫ÂèÇÊï∞ÈïøÂ∫¶+2ÔºåÂèÇÊï∞ÈïøÂ∫¶‰∏∫3 // (Send th
  82              		.loc 1 53 0
  83 0036 0720     		movs	r0, #7
  84 0038 FFF7FEFF 		bl	UART_PutChar
  85              	.LVL12:
  54:servo.c       ****     UART_PutChar(0x03);       // ÂëΩ‰ª§Êï∞ÊçÆ‰∏∫‚ÄúWRITE DATA‚Äù // (Send command ‚ÄúWRITE DATA‚Äù)
  86              		.loc 1 54 0
  87 003c 0320     		movs	r0, #3
  88 003e FFF7FEFF 		bl	UART_PutChar
  89              	.LVL13:
  55:servo.c       ****     UART_PutChar(0x06);       // ËàµÊú∫ÊéßÂà∂ÂØÑÂ≠òÂô®È¶ñÂú∞ÂùÄ
  90              		.loc 1 55 0
  91 0042 0620     		movs	r0, #6
  92 0044 FFF7FEFF 		bl	UART_PutChar
  93              	.LVL14:
  56:servo.c       ****     UART_PutChar(temp_cw_l);  // ÂèëÈÄÅÈ°∫Êó∂Èíà‰ΩçÁΩÆÈôêÂà∂‰Ωé‰Ωç // (Send the low byte of clockwi
  94              		.loc 1 56 0
  95 0048 3846     		mov	r0, r7
  96 004a FFF7FEFF 		bl	UART_PutChar
  97              	.LVL15:
  57:servo.c       ****     UART_PutChar(temp_cw_h);  // ÂèëÈÄÅÈ°∫Êó∂Èíà‰ΩçÁΩÆÈôêÂà∂È´ò‰Ωç //(Send the high byte of clockwi
  98              		.loc 1 57 0
  99 004e 4046     		mov	r0, r8
 100 0050 FFF7FEFF 		bl	UART_PutChar
 101              	.LVL16:
  58:servo.c       ****     UART_PutChar(temp_ccw_l); // ÂèëÈÄÅÈÄÜÊó∂Èíà‰ΩçÁΩÆÈôêÂà∂‰Ωé‰Ωç // (Send the low byte of counter
 102              		.loc 1 58 0
 103 0054 2846     		mov	r0, r5
 104 0056 FFF7FEFF 		bl	UART_PutChar
 105              	.LVL17:
  59:servo.c       ****     UART_PutChar(temp_ccw_h); // ÂèëÈÄÅÈÄÜÊó∂Èíà‰ΩçÁΩÆÈôêÂà∂È´ò‰Ωç // (Send the low byte of counter
 106              		.loc 1 59 0
 107 005a 3046     		mov	r0, r6
 108 005c FFF7FEFF 		bl	UART_PutChar
 109              	.LVL18:
  60:servo.c       ****     temp_sum = id + 7 + 0x03 + 0x06 + temp_cw_l + temp_cw_h + temp_ccw_l + temp_ccw_h;
 110              		.loc 1 60 0
 111 0060 3819     		adds	r0, r7, r4
ARM GAS  C:\Users\lab512\AppData\Local\Temp\ccieL2OU.s 			page 4


 112 0062 4044     		add	r0, r0, r8
 113 0064 2844     		add	r0, r0, r5
 114 0066 3044     		add	r0, r0, r6
 115 0068 1030     		adds	r0, r0, #16
 116 006a C0B2     		uxtb	r0, r0
 117              	.LVL19:
  61:servo.c       ****     temp_sum = ~temp_sum;   // ËÆ°ÁÆóÊ†°È™åÂíå // (Calculate the checksum)
 118              		.loc 1 61 0
 119 006c C043     		mvns	r0, r0
 120              	.LVL20:
  62:servo.c       ****     UART_PutChar(temp_sum); // ÂèëÈÄÅÊ†°È™åÂíå // (Send checksum)
 121              		.loc 1 62 0
 122 006e C0B2     		uxtb	r0, r0
 123 0070 FFF7FEFF 		bl	UART_PutChar
 124              	.LVL21:
  63:servo.c       ****     // while ( !( UCSR0A & (1<<TXC0)) ) ;
  64:servo.c       ****     // PORTA |= _BV(PA1);
  65:servo.c       ****     // PORTA &= ~_BV(PA0); // ‰ΩøÊÄªÁ∫øÂ§Ñ‰∫é‰∏ªÊú∫Êé•Êî∂Áä∂ÊÄÅ // (Set the UART bus to host receiv
  66:servo.c       ****     CyDelay(WAITING_TIME); // ÈÄÅÂÆåÊàêÂêéÔºåÊÄªÁ∫ø‰ºöË¢´‰ªéÊú∫Âç†Áî®ÔºåÂèçÈ¶àÂ∫îÁ≠îÊï∞ÊçÆÔºåÊâÄ‰ª•
 125              		.loc 1 66 0
 126 0074 0220     		movs	r0, #2
 127 0076 FFF7FEFF 		bl	CyDelay
 128              	.LVL22:
 129 007a BDE8F081 		pop	{r4, r5, r6, r7, r8, pc}
 130              		.cfi_endproc
 131              	.LFE63:
 132              		.size	SetServoLimit, .-SetServoLimit
 133 007e 00BF     		.section	.text.SetServoPosition,"ax",%progbits
 134              		.align	2
 135              		.global	SetServoPosition
 136              		.thumb
 137              		.thumb_func
 138              		.type	SetServoPosition, %function
 139              	SetServoPosition:
 140              	.LFB64:
  67:servo.c       **** }
  68:servo.c       **** 
  69:servo.c       **** void SetServoPosition(unsigned char id, unsigned short int position, unsigned short int velocity)
  70:servo.c       **** {
 141              		.loc 1 70 0
 142              		.cfi_startproc
 143              		@ args = 0, pretend = 0, frame = 0
 144              		@ frame_needed = 0, uses_anonymous_args = 0
 145              	.LVL23:
 146 0000 2DE9F041 		push	{r4, r5, r6, r7, r8, lr}
 147              		.cfi_def_cfa_offset 24
 148              		.cfi_offset 4, -24
 149              		.cfi_offset 5, -20
 150              		.cfi_offset 6, -16
 151              		.cfi_offset 7, -12
 152              		.cfi_offset 8, -8
 153              		.cfi_offset 14, -4
 154 0004 0446     		mov	r4, r0
 155              	.LVL24:
  71:servo.c       ****     unsigned short int temp_velocity = 0; // ‰∏¥Êó∂ÈÄüÂ∫¶ÔºåÁî®‰∫éËøõË°åÊñπÂêëÂà§Âà´ // (temp veloc
  72:servo.c       ****     unsigned short int temp_position = 0;
  73:servo.c       ****     unsigned char temp_velocity_h = 0; // ÂæÖÂèëÈÄÅÊï∞ÊçÆh‰Ωç // (h bits to be sended)
ARM GAS  C:\Users\lab512\AppData\Local\Temp\ccieL2OU.s 			page 5


  74:servo.c       ****     unsigned char temp_velocity_l = 0; // ÂæÖÂèëÈÄÅÊï∞ÊçÆl‰Ωç // (l bits to be sended)
  75:servo.c       ****     unsigned char temp_position_h = 0;
  76:servo.c       ****     unsigned char temp_position_l = 0;
  77:servo.c       ****     unsigned char temp_sum = 0; // Ê†°È™åÂíåÂØÑÂ≠òÂèòÈáè // (temp variable to save checksum)
  78:servo.c       ****     if (velocity > 1023)
 156              		.loc 1 78 0
 157 0006 B2F5806F 		cmp	r2, #1024
 158 000a 01D3     		bcc	.L6
  79:servo.c       ****     {
  80:servo.c       ****         temp_velocity = 1023;
 159              		.loc 1 80 0
 160 000c 40F2FF32 		movw	r2, #1023
 161              	.LVL25:
 162              	.L6:
  81:servo.c       ****         // ÈôêÂà∂ÈÄüÂ∫¶ÂÄºÂú®ÂèØÁî®ËåÉÂõ¥ÂÜÖ // (limit the velocity to 0-1023)
  82:servo.c       ****     }
  83:servo.c       ****     else
  84:servo.c       ****     {
  85:servo.c       ****         temp_velocity = velocity;
  86:servo.c       ****     }
  87:servo.c       ****     if (position > 1023)
 163              		.loc 1 87 0
 164 0010 B1F5806F 		cmp	r1, #1024
 165 0014 01D3     		bcc	.L7
  88:servo.c       ****     {
  89:servo.c       ****         temp_position = 1023;
 166              		.loc 1 89 0
 167 0016 40F2FF31 		movw	r1, #1023
 168              	.LVL26:
 169              	.L7:
  90:servo.c       ****     }
  91:servo.c       ****     else
  92:servo.c       ****     {
  93:servo.c       ****         temp_position = position;
  94:servo.c       ****     }
  95:servo.c       ****     temp_velocity_h = (unsigned char)(temp_velocity >> 8);
 170              		.loc 1 95 0
 171 001a 160A     		lsrs	r6, r2, #8
 172              	.LVL27:
  96:servo.c       ****     temp_velocity_l = (unsigned char)temp_velocity; // Â∞Ü16bitÊï∞ÊçÆÊãÜ‰∏∫2‰∏™8bitÊï∞ÊçÆ // (split
 173              		.loc 1 96 0
 174 001c D5B2     		uxtb	r5, r2
 175              	.LVL28:
  97:servo.c       ****     temp_position_h = (unsigned char)(temp_position >> 8);
 176              		.loc 1 97 0
 177 001e 4FEA1128 		lsr	r8, r1, #8
 178              	.LVL29:
  98:servo.c       ****     temp_position_l = (unsigned char)temp_position; // Â∞Ü16bitÊï∞ÊçÆÊãÜ‰∏∫2‰∏™8bitÊï∞ÊçÆ // (split
 179              		.loc 1 98 0
 180 0022 CFB2     		uxtb	r7, r1
 181              	.LVL30:
  99:servo.c       ****     // PORTA &= ~_BV(PA1);
 100:servo.c       ****     // PORTA |= _BV(PA0); // ‰ΩøÊÄªÁ∫øÂ§Ñ‰∫é‰∏ªÊú∫ÂèëÈÄÅÁä∂ÊÄÅ // (Set the bus to host transmit sta
 101:servo.c       ****     // UCSR0A |= (1<<TXC0); // Ê∏ÖÈô§UART0ÂÜôÂÆåÊàêÊ†áÂøó // (Clear written flag of UART0)
 102:servo.c       ****     UART_PutChar(0xFF);            // ÂèëÈÄÅÂêØÂä®Á¨¶Âè∑0xFF // (Send the start byte 0xff)
 182              		.loc 1 102 0
 183 0024 FF20     		movs	r0, #255
ARM GAS  C:\Users\lab512\AppData\Local\Temp\ccieL2OU.s 			page 6


 184              	.LVL31:
 185 0026 FFF7FEFF 		bl	UART_PutChar
 186              	.LVL32:
 103:servo.c       ****     UART_PutChar(0xFF);            // ÂèëÈÄÅÂêØÂä®Á¨¶Âè∑0xFF // (Send the start byte 0xff)
 187              		.loc 1 103 0
 188 002a FF20     		movs	r0, #255
 189 002c FFF7FEFF 		bl	UART_PutChar
 190              	.LVL33:
 104:servo.c       ****     UART_PutChar(id);              // ÂèëÈÄÅid // (Send the servo‚Äôs ID)
 191              		.loc 1 104 0
 192 0030 2046     		mov	r0, r4
 193 0032 FFF7FEFF 		bl	UART_PutChar
 194              	.LVL34:
 105:servo.c       ****     UART_PutChar(7);               // ÂèëÈÄÅÊï∞ÊçÆÈïøÂ∫¶‰∏∫ÂèÇÊï∞ÈïøÂ∫¶+2ÔºåÂèÇÊï∞ÈïøÂ∫¶‰∏∫3 // (Se
 195              		.loc 1 105 0
 196 0036 0720     		movs	r0, #7
 197 0038 FFF7FEFF 		bl	UART_PutChar
 198              	.LVL35:
 106:servo.c       ****     UART_PutChar(0x03);            // ÂëΩ‰ª§Êï∞ÊçÆ‰∏∫‚ÄúWRITE DATA‚Äù // (Send command ‚ÄúWRITE DAT
 199              		.loc 1 106 0
 200 003c 0320     		movs	r0, #3
 201 003e FFF7FEFF 		bl	UART_PutChar
 202              	.LVL36:
 107:servo.c       ****     UART_PutChar(0x1E);            // ËàµÊú∫ÊéßÂà∂ÂØÑÂ≠òÂô®È¶ñÂú∞ÂùÄ
 203              		.loc 1 107 0
 204 0042 1E20     		movs	r0, #30
 205 0044 FFF7FEFF 		bl	UART_PutChar
 206              	.LVL37:
 108:servo.c       ****     UART_PutChar(temp_position_l); // ÂèëÈÄÅÈ°∫Êó∂Èíà‰ΩçÁΩÆÈôêÂà∂‰Ωé‰Ωç // (Send the low byte of cl
 207              		.loc 1 108 0
 208 0048 3846     		mov	r0, r7
 209 004a FFF7FEFF 		bl	UART_PutChar
 210              	.LVL38:
 109:servo.c       ****     UART_PutChar(temp_position_h); // ÂèëÈÄÅÈ°∫Êó∂Èíà‰ΩçÁΩÆÈôêÂà∂È´ò‰Ωç //(Send the high byte of cl
 211              		.loc 1 109 0
 212 004e 4046     		mov	r0, r8
 213 0050 FFF7FEFF 		bl	UART_PutChar
 214              	.LVL39:
 110:servo.c       ****     UART_PutChar(temp_velocity_l); // ÂèëÈÄÅÈÄÜÊó∂Èíà‰ΩçÁΩÆÈôêÂà∂‰Ωé‰Ωç // (Send the low byte of co
 215              		.loc 1 110 0
 216 0054 2846     		mov	r0, r5
 217 0056 FFF7FEFF 		bl	UART_PutChar
 218              	.LVL40:
 111:servo.c       ****     UART_PutChar(temp_velocity_h); // ÂèëÈÄÅÈÄÜÊó∂Èíà‰ΩçÁΩÆÈôêÂà∂È´ò‰Ωç // (Send the low byte of co
 219              		.loc 1 111 0
 220 005a 3046     		mov	r0, r6
 221 005c FFF7FEFF 		bl	UART_PutChar
 222              	.LVL41:
 112:servo.c       ****     temp_sum = id + 7 + 0x03 + 0x1E + temp_position_l + temp_position_h + temp_velocity_l + temp_ve
 223              		.loc 1 112 0
 224 0060 3819     		adds	r0, r7, r4
 225 0062 4044     		add	r0, r0, r8
 226 0064 2844     		add	r0, r0, r5
 227 0066 3044     		add	r0, r0, r6
 228 0068 2830     		adds	r0, r0, #40
 229 006a C0B2     		uxtb	r0, r0
 230              	.LVL42:
ARM GAS  C:\Users\lab512\AppData\Local\Temp\ccieL2OU.s 			page 7


 113:servo.c       ****     temp_sum = ~temp_sum;   // ËÆ°ÁÆóÊ†°È™åÂíå // (Calculate the checksum)
 231              		.loc 1 113 0
 232 006c C043     		mvns	r0, r0
 233              	.LVL43:
 114:servo.c       ****     UART_PutChar(temp_sum); // ÂèëÈÄÅÊ†°È™åÂíå // (Send checksum)
 234              		.loc 1 114 0
 235 006e C0B2     		uxtb	r0, r0
 236 0070 FFF7FEFF 		bl	UART_PutChar
 237              	.LVL44:
 115:servo.c       ****     // while ( !( UCSR0A & (1<<TXC0)) ) ;
 116:servo.c       ****     // PORTA |= _BV(PA1);
 117:servo.c       ****     // PORTA &= ~_BV(PA0); // ‰ΩøÊÄªÁ∫øÂ§Ñ‰∫é‰∏ªÊú∫Êé•Êî∂Áä∂ÊÄÅ // (Set the UART bus to host receiv
 118:servo.c       ****     CyDelay(WAITING_TIME); // ÈÄÅÂÆåÊàêÂêéÔºåÊÄªÁ∫ø‰ºöË¢´‰ªéÊú∫Âç†Áî®ÔºåÂèçÈ¶àÂ∫îÁ≠îÊï∞ÊçÆÔºåÊâÄ‰ª•
 238              		.loc 1 118 0
 239 0074 0220     		movs	r0, #2
 240 0076 FFF7FEFF 		bl	CyDelay
 241              	.LVL45:
 242 007a BDE8F081 		pop	{r4, r5, r6, r7, r8, pc}
 243              		.cfi_endproc
 244              	.LFE64:
 245              		.size	SetServoPosition, .-SetServoPosition
 246 007e 00BF     		.section	.text.SetServoVelocity,"ax",%progbits
 247              		.align	2
 248              		.global	SetServoVelocity
 249              		.thumb
 250              		.thumb_func
 251              		.type	SetServoVelocity, %function
 252              	SetServoVelocity:
 253              	.LFB65:
 119:servo.c       **** }
 120:servo.c       **** 
 121:servo.c       **** void SetServoVelocity(unsigned char id, signed short int velocity)
 122:servo.c       **** {
 254              		.loc 1 122 0
 255              		.cfi_startproc
 256              		@ args = 0, pretend = 0, frame = 0
 257              		@ frame_needed = 0, uses_anonymous_args = 0
 258              	.LVL46:
 259 0000 70B5     		push	{r4, r5, r6, lr}
 260              		.cfi_def_cfa_offset 16
 261              		.cfi_offset 4, -16
 262              		.cfi_offset 5, -12
 263              		.cfi_offset 6, -8
 264              		.cfi_offset 14, -4
 265 0002 0546     		mov	r5, r0
 266              	.LVL47:
 123:servo.c       ****     unsigned char temp_sign = 0;          // ‰∏¥Êó∂Á¨¶Âè∑ÔºåÁî®‰∫éËøõË°åÊñπÂêëÂà§Âà´ // (temp varia
 124:servo.c       ****     unsigned short int temp_velocity = 0; // ‰∏¥Êó∂ÈÄüÂ∫¶ÔºåÁî®‰∫éËøõË°åÊñπÂêëÂà§Âà´ // (temp veloc
 125:servo.c       ****     unsigned char temp_value_h = 0;       // ÂæÖÂèëÈÄÅÊï∞ÊçÆh‰Ωç // (h bits to send)
 126:servo.c       ****     unsigned char temp_value_l = 0;       // ÂæÖÂèëÈÄÅÊï∞ÊçÆl‰Ωç // (l bits to send)
 127:servo.c       ****     unsigned char temp_sum = 0;           // Ê†°È™åÂíåÂØÑÂ≠òÂèòÈáè // (temp variable to save checks
 128:servo.c       ****     if (velocity < 0)
 267              		.loc 1 128 0
 268 0004 0029     		cmp	r1, #0
 269              	.LVL48:
 270 0006 03DA     		bge	.L10
 129:servo.c       ****     {
ARM GAS  C:\Users\lab512\AppData\Local\Temp\ccieL2OU.s 			page 8


 130:servo.c       ****         temp_velocity = -velocity; // Â¶ÇÊûú‰∏∫Ë¥üÊï∞ÔºåÂàôÂèñÁªùÂØπÂÄº // (if negative, get the ab
 271              		.loc 1 130 0
 272 0008 4942     		negs	r1, r1
 273 000a 89B2     		uxth	r1, r1
 274              	.LVL49:
 131:servo.c       ****         temp_sign = 1;             // ËÆæÁΩÆË¥üÊï∞Á¨¶Âè∑Ê†áÂøó // (Set negative flag)
 275              		.loc 1 131 0
 276 000c 0124     		movs	r4, #1
 277 000e 01E0     		b	.L11
 278              	.LVL50:
 279              	.L10:
 132:servo.c       ****     }
 133:servo.c       ****     else
 134:servo.c       ****     {
 135:servo.c       ****         temp_velocity = velocity;
 280              		.loc 1 135 0
 281 0010 89B2     		uxth	r1, r1
 282              	.LVL51:
 136:servo.c       ****         temp_sign = 0; // ËÆæÁΩÆÊ≠£Êï∞Á¨¶Âè∑Ê†áÂøó // (Set positive flag)
 283              		.loc 1 136 0
 284 0012 0024     		movs	r4, #0
 285              	.LVL52:
 286              	.L11:
 137:servo.c       ****     }
 138:servo.c       ****     if (temp_velocity > 1023)
 287              		.loc 1 138 0
 288 0014 B1F5806F 		cmp	r1, #1024
 289 0018 01D3     		bcc	.L12
 139:servo.c       ****     {
 140:servo.c       ****         temp_velocity = 1023; // ÈôêÂà∂ÈÄüÂ∫¶ÂÄºÂú®ÂèØÁî®ËåÉÂõ¥ÂÜÖ // (Limit the velocity to 0-1023
 290              		.loc 1 140 0
 291 001a 40F2FF31 		movw	r1, #1023
 292              	.LVL53:
 293              	.L12:
 141:servo.c       ****     }                         // ËÆæÁΩÆbit10‰∏∫ÊñπÂêë‰ΩçÔºåËøôÊó∂temp_velocityÂ∞±ÊòØÂæÖÂèëÈÄÅÁöÑÈÄü
 142:servo.c       ****     temp_velocity |= (temp_sign << 10);
 294              		.loc 1 142 0
 295 001e 41EA8424 		orr	r4, r1, r4, lsl #10
 296              	.LVL54:
 297 0022 24B2     		sxth	r4, r4
 298              	.LVL55:
 143:servo.c       ****     temp_value_h = (unsigned char)(temp_velocity >> 8); // Â∞Ü16bitÊï∞ÊçÆÊãÜ‰∏∫2‰∏™8bitÊï∞ÊçÆ // (S
 299              		.loc 1 143 0
 300 0024 C4F30726 		ubfx	r6, r4, #8, #8
 301              	.LVL56:
 144:servo.c       ****     temp_value_l = (unsigned char)temp_velocity;
 302              		.loc 1 144 0
 303 0028 E4B2     		uxtb	r4, r4
 304              	.LVL57:
 145:servo.c       ****     UART_PutChar(0xFF);         // ÂèëÈÄÅÂêØÂä®Á¨¶Âè∑0xFF // (Send the start byte 0xFF)
 305              		.loc 1 145 0
 306 002a FF20     		movs	r0, #255
 307              	.LVL58:
 308 002c FFF7FEFF 		bl	UART_PutChar
 309              	.LVL59:
 146:servo.c       ****     UART_PutChar(0xFF);         // ÂèëÈÄÅÂêØÂä®Á¨¶Âè∑0xFF // (Send the start byte 0xFF)
 310              		.loc 1 146 0
ARM GAS  C:\Users\lab512\AppData\Local\Temp\ccieL2OU.s 			page 9


 311 0030 FF20     		movs	r0, #255
 312 0032 FFF7FEFF 		bl	UART_PutChar
 313              	.LVL60:
 147:servo.c       ****     UART_PutChar(id);           // ÂèëÈÄÅid // (Send the servo‚Äôs ID)
 314              		.loc 1 147 0
 315 0036 2846     		mov	r0, r5
 316 0038 FFF7FEFF 		bl	UART_PutChar
 317              	.LVL61:
 148:servo.c       ****     UART_PutChar(5);            // ÂèëÈÄÅÊï∞ÊçÆÈïøÂ∫¶‰∏∫ÂèÇÊï∞ÈïøÂ∫¶+2ÔºåÂèÇÊï∞ÈïøÂ∫¶‰∏∫3 // (Send 
 318              		.loc 1 148 0
 319 003c 0520     		movs	r0, #5
 320 003e FFF7FEFF 		bl	UART_PutChar
 321              	.LVL62:
 149:servo.c       ****     UART_PutChar(0x03);         // ÂëΩ‰ª§Êï∞ÊçÆ‰∏∫‚ÄúWRITE DATA‚Äù // (Send command ‚ÄúWRITE DATA‚Ä
 322              		.loc 1 149 0
 323 0042 0320     		movs	r0, #3
 324 0044 FFF7FEFF 		bl	UART_PutChar
 325              	.LVL63:
 150:servo.c       ****     UART_PutChar(0x20);         // ËàµÊú∫ÊéßÂà∂ÂØÑÂ≠òÂô®È¶ñÂú∞ÂùÄ // (Send the start address of con
 326              		.loc 1 150 0
 327 0048 2020     		movs	r0, #32
 328 004a FFF7FEFF 		bl	UART_PutChar
 329              	.LVL64:
 151:servo.c       ****     UART_PutChar(temp_value_l); // ÂèëÈÄÅÈÄüÂ∫¶Êï∞ÊçÆ‰Ωé‰Ωç // (Send the low byte of velocity)
 330              		.loc 1 151 0
 331 004e 2046     		mov	r0, r4
 332 0050 FFF7FEFF 		bl	UART_PutChar
 333              	.LVL65:
 152:servo.c       ****     UART_PutChar(temp_value_h); // ÂèëÈÄÅÈÄüÂ∫¶Êï∞ÊçÆÈ´ò‰Ωç // (Send the high byte of velocity)
 334              		.loc 1 152 0
 335 0054 3046     		mov	r0, r6
 336 0056 FFF7FEFF 		bl	UART_PutChar
 337              	.LVL66:
 153:servo.c       ****     temp_sum = id + 5 + 0x03 + 0x20 + temp_value_l + temp_value_h;
 338              		.loc 1 153 0
 339 005a 6019     		adds	r0, r4, r5
 340 005c 3044     		add	r0, r0, r6
 341 005e 2830     		adds	r0, r0, #40
 342 0060 C0B2     		uxtb	r0, r0
 343              	.LVL67:
 154:servo.c       ****     temp_sum = ~temp_sum;    // ËÆ°ÁÆóÊ†°È™åÂíå // (Calculate the checksum)
 344              		.loc 1 154 0
 345 0062 C043     		mvns	r0, r0
 346              	.LVL68:
 155:servo.c       ****     UART_PutChar(temp_sum); // ÂèëÈÄÅÊ†°È™åÂíå // (Send the checksum)
 347              		.loc 1 155 0
 348 0064 C0B2     		uxtb	r0, r0
 349 0066 FFF7FEFF 		bl	UART_PutChar
 350              	.LVL69:
 156:servo.c       ****     CyDelay(WAITING_TIME);
 351              		.loc 1 156 0
 352 006a 0220     		movs	r0, #2
 353 006c FFF7FEFF 		bl	CyDelay
 354              	.LVL70:
 355 0070 70BD     		pop	{r4, r5, r6, pc}
 356              		.cfi_endproc
 357              	.LFE65:
ARM GAS  C:\Users\lab512\AppData\Local\Temp\ccieL2OU.s 			page 10


 358              		.size	SetServoVelocity, .-SetServoVelocity
 359 0072 00BF     		.text
 360              	.Letext0:
 361              		.file 2 "d:\\psoccreator4.2\\psoc creator\\4.2\\psoc creator\\import\\gnu\\arm\\5.4.1\\arm-none-ea
 362              		.file 3 "d:\\psoccreator4.2\\psoc creator\\4.2\\psoc creator\\import\\gnu\\arm\\5.4.1\\arm-none-ea
 363              		.file 4 "Generated_Source\\PSoC5/UART.h"
 364              		.file 5 "Generated_Source\\PSoC5/CyLib.h"
 365              		.file 6 "Generated_Source\\PSoC5/core_cm3.h"